; Function Attrs: mustprogress uwtable
define hidden void @_ZN2cv11WebPDecoderC2Ev(ptr noundef nonnull align 8 dereferenceable(1008) %0) unnamed_addr #3 align 2 personality ptr @__gxx_personality_v0 {
  tail call void @_ZN2cv16BaseImageDecoderC2Ev(ptr noundef nonnull align 8 dereferenceable(368) %0)
  store ptr getelementptr inbounds nuw inrange(-16, 104) (i8, ptr @_ZTVN2cv11WebPDecoderE, i64 16), ptr %0, align 8, !tbaa !3
  %2 = getelementptr inbounds nuw i8, ptr %0, i64 368
  invoke void @_ZNSt14basic_ifstreamIcSt11char_traitsIcEEC1Ev(ptr noundef nonnull align 8 dereferenceable(256) %2)
          to label %3 unwind label %10

3:                                                ; preds = %1
  %4 = getelementptr inbounds nuw i8, ptr %0, i64 896
  tail call void @_ZN2cv3MatC1Ev(ptr noundef nonnull align 8 dereferenceable(96) %4) #21
  %5 = getelementptr inbounds nuw i8, ptr %0, i64 992
  store ptr null, ptr %5, align 8, !tbaa !6
  %6 = getelementptr inbounds nuw i8, ptr %0, i64 184
  store i8 1, ptr %6, align 8, !tbaa !11
  %7 = getelementptr inbounds nuw i8, ptr %0, i64 888
  store i64 0, ptr %7, align 8, !tbaa !54
  %8 = getelementptr inbounds nuw i8, ptr %0, i64 1000
  store i8 0, ptr %8, align 8, !tbaa !72
  %9 = getelementptr inbounds nuw i8, ptr %0, i64 1004
  store i32 0, ptr %9, align 4, !tbaa !73
  ret void

10:                                               ; preds = %1
  %11 = landingpad { ptr, i32 }
          cleanup
  tail call void @_ZN2cv16BaseImageDecoderD2Ev(ptr noundef nonnull align 8 dereferenceable(368) %0) #21
  resume { ptr, i32 } %11
}